target datalayout = "e-m:e-p270:32:32-p271:32:32-p272:64:64-i64:64-i128:128-f80:128-n8:16:32:64-S128"
target triple = "x86_64-pc-linux-gnu"

%struct.IDAMemRec = type { double, ptr, ptr, i32, double, double, ptr, i32, ptr, ptr, i32, ptr, ptr, i32, i32, double, double, ptr, i32, i32, i32, ptr, ptr, i32, ptr, ptr, ptr, i32, double, i32, i32, double, ptr, ptr, i32, ptr, ptr, i32, i32, i32, double, ptr, ptr, [6 x ptr], [6 x double], [6 x double], [6 x double], [6 x double], [6 x double], ptr, ptr, ptr, ptr, ptr, ptr, ptr, ptr, ptr, ptr, ptr, ptr, ptr, ptr, ptr, [6 x ptr], ptr, ptr, ptr, ptr, [6 x ptr], ptr, ptr, ptr, ptr, ptr, ptr, ptr, ptr, ptr, ptr, ptr, ptr, ptr, ptr, [6 x ptr], ptr, ptr, ptr, ptr, ptr, double, ptr, ptr, i32, i32, i32, i32, i32, i32, i32, double, double, double, i32, double, i32, i32, i32, i32, double, double, double, double, double, double, double, double, double, double, double, double, double, double, i32, i32, i32, i32, i32, i64, double, i32, i64, i64, i64, i64, i64, i64, i64, i64, i64, i64, i64, i64, i64, i64, i64, i64, i64, i64, i64, i64, i64, i64, i64, i64, ptr, ptr, ptr, i32, i32, i32, i32, i32, i32, i32, i32, i32, i32, i32, i32, i32, ptr, ptr, ptr, ptr, ptr, ptr, i32, i32, i32, i32, i32, i32, double, double, double, ptr, i32, ptr, ptr, double, double, double, ptr, ptr, ptr, double, double, i32, i32, i64, ptr, i32, i32, ptr, i32 }

@.str = private unnamed_addr constant [5 x i8] c"IDAS\00", align 1
@.str.51 = private unnamed_addr constant [9 x i8] c"IDASolve\00", align 1
@.str.114 = private unnamed_addr constant [77 x i8] c"At t = %lg and h = %lg, the error test failed repeatedly or with |h| = hmin.\00", align 1
@.str.115 = private unnamed_addr constant [88 x i8] c"At t = %lg and h = %lg, the corrector convergence failed repeatedly or with |h| = hmin.\00", align 1
@.str.116 = private unnamed_addr constant [58 x i8] c"At t = %lg, the linear solver setup failed unrecoverably.\00", align 1
@.str.117 = private unnamed_addr constant [58 x i8] c"At t = %lg, the linear solver solve failed unrecoverably.\00", align 1
@.str.118 = private unnamed_addr constant [50 x i8] c"At t = %lg, repeated recoverable residual errors.\00", align 1
@.str.119 = private unnamed_addr constant [56 x i8] c"At t = %lg, the residual function failed unrecoverably.\00", align 1
@.str.120 = private unnamed_addr constant [54 x i8] c"At t = %lg, unable to satisfy inequality constraints.\00", align 1

; Function Attrs: nounwind uwtable
define internal i32 @IDAHandleFailure(ptr noundef %0, i32 noundef %1) #0 {
  %3 = alloca i32, align 4
  %4 = alloca ptr, align 8
  %5 = alloca i32, align 4
  store ptr %0, ptr %4, align 8, !tbaa !3
  store i32 %1, ptr %5, align 4, !tbaa !88
  %6 = load i32, ptr %5, align 4, !tbaa !88
  switch i32 %6, label %48 [
    i32 -3, label %7
    i32 -4, label %15
    i32 -6, label %23
    i32 -7, label %28
    i32 -9, label %33
    i32 -8, label %38
    i32 -11, label %43
  ]

7:                                                ; preds = %2
  %8 = load ptr, ptr %4, align 8, !tbaa !3
  %9 = load ptr, ptr %4, align 8, !tbaa !3
  %10 = getelementptr inbounds nuw %struct.IDAMemRec, ptr %9, i32 0, i32 112
  %11 = load double, ptr %10, align 8, !tbaa !106
  %12 = load ptr, ptr %4, align 8, !tbaa !3
  %13 = getelementptr inbounds nuw %struct.IDAMemRec, ptr %12, i32 0, i32 110
  %14 = load double, ptr %13, align 8, !tbaa !228
  call void (ptr, i32, ptr, ptr, ptr, ...) @IDAProcessError(ptr noundef %8, i32 noundef -3, ptr noundef @.str, ptr noundef @.str.51, ptr noundef @.str.114, double noundef %11, double noundef %14)
  store i32 -3, ptr %3, align 4
  br label %49

15:                                               ; preds = %2
  %16 = load ptr, ptr %4, align 8, !tbaa !3
  %17 = load ptr, ptr %4, align 8, !tbaa !3
  %18 = getelementptr inbounds nuw %struct.IDAMemRec, ptr %17, i32 0, i32 112
  %19 = load double, ptr %18, align 8, !tbaa !106
  %20 = load ptr, ptr %4, align 8, !tbaa !3
  %21 = getelementptr inbounds nuw %struct.IDAMemRec, ptr %20, i32 0, i32 110
  %22 = load double, ptr %21, align 8, !tbaa !228
  call void (ptr, i32, ptr, ptr, ptr, ...) @IDAProcessError(ptr noundef %16, i32 noundef -4, ptr noundef @.str, ptr noundef @.str.51, ptr noundef @.str.115, double noundef %19, double noundef %22)
  store i32 -4, ptr %3, align 4
  br label %49

23:                                               ; preds = %2
  %24 = load ptr, ptr %4, align 8, !tbaa !3
  %25 = load ptr, ptr %4, align 8, !tbaa !3
  %26 = getelementptr inbounds nuw %struct.IDAMemRec, ptr %25, i32 0, i32 112
  %27 = load double, ptr %26, align 8, !tbaa !106
  call void (ptr, i32, ptr, ptr, ptr, ...) @IDAProcessError(ptr noundef %24, i32 noundef -6, ptr noundef @.str, ptr noundef @.str.51, ptr noundef @.str.116, double noundef %27)
  store i32 -6, ptr %3, align 4
  br label %49

28:                                               ; preds = %2
  %29 = load ptr, ptr %4, align 8, !tbaa !3
  %30 = load ptr, ptr %4, align 8, !tbaa !3
  %31 = getelementptr inbounds nuw %struct.IDAMemRec, ptr %30, i32 0, i32 112
  %32 = load double, ptr %31, align 8, !tbaa !106
  call void (ptr, i32, ptr, ptr, ptr, ...) @IDAProcessError(ptr noundef %29, i32 noundef -7, ptr noundef @.str, ptr noundef @.str.51, ptr noundef @.str.117, double noundef %32)
  store i32 -7, ptr %3, align 4
  br label %49

33:                                               ; preds = %2
  %34 = load ptr, ptr %4, align 8, !tbaa !3
  %35 = load ptr, ptr %4, align 8, !tbaa !3
  %36 = getelementptr inbounds nuw %struct.IDAMemRec, ptr %35, i32 0, i32 112
  %37 = load double, ptr %36, align 8, !tbaa !106
  call void (ptr, i32, ptr, ptr, ptr, ...) @IDAProcessError(ptr noundef %34, i32 noundef -9, ptr noundef @.str, ptr noundef @.str.51, ptr noundef @.str.118, double noundef %37)
  store i32 -9, ptr %3, align 4
  br label %49

38:                                               ; preds = %2
  %39 = load ptr, ptr %4, align 8, !tbaa !3
  %40 = load ptr, ptr %4, align 8, !tbaa !3
  %41 = getelementptr inbounds nuw %struct.IDAMemRec, ptr %40, i32 0, i32 112
  %42 = load double, ptr %41, align 8, !tbaa !106
  call void (ptr, i32, ptr, ptr, ptr, ...) @IDAProcessError(ptr noundef %39, i32 noundef -8, ptr noundef @.str, ptr noundef @.str.51, ptr noundef @.str.119, double noundef %42)
  store i32 -8, ptr %3, align 4
  br label %49

43:                                               ; preds = %2
  %44 = load ptr, ptr %4, align 8, !tbaa !3
  %45 = load ptr, ptr %4, align 8, !tbaa !3
  %46 = getelementptr inbounds nuw %struct.IDAMemRec, ptr %45, i32 0, i32 112
  %47 = load double, ptr %46, align 8, !tbaa !106
  call void (ptr, i32, ptr, ptr, ptr, ...) @IDAProcessError(ptr noundef %44, i32 noundef -11, ptr noundef @.str, ptr noundef @.str.51, ptr noundef @.str.120, double noundef %47)
  store i32 -11, ptr %3, align 4
  br label %49

48:                                               ; preds = %2
  store i32 -99, ptr %3, align 4
  br label %49

49:                                               ; preds = %48, %43, %38, %33, %28, %23, %15, %7
  %50 = load i32, ptr %3, align 4
  ret i32 %50
}