; Function Attrs: nounwind uwtable
define internal fastcc range(i32 -99, -2) i32 @IDAHandleFailure(ptr noundef nonnull captures(address_is_null) %0, i32 noundef %1) unnamed_addr #0 {
  switch i32 %1, label %28 [
    i32 -3, label %3
    i32 -4, label %8
    i32 -6, label %13
    i32 -7, label %16
    i32 -9, label %19
    i32 -8, label %22
    i32 -11, label %25
  ]

3:                                                ; preds = %2
  %4 = getelementptr inbounds nuw i8, ptr %0, i64 1184
  %5 = load double, ptr %4, align 8, !tbaa !98
  %6 = getelementptr inbounds nuw i8, ptr %0, i64 1168
  %7 = load double, ptr %6, align 8, !tbaa !205
  tail call void (ptr, i32, ptr, ptr, ptr, ...) @IDAProcessError(ptr noundef nonnull %0, i32 noundef -3, ptr noundef nonnull @.str, ptr noundef nonnull @.str.51, ptr noundef nonnull @.str.114, double noundef %5, double noundef %7)
  br label %28

8:                                                ; preds = %2
  %9 = getelementptr inbounds nuw i8, ptr %0, i64 1184
  %10 = load double, ptr %9, align 8, !tbaa !98
  %11 = getelementptr inbounds nuw i8, ptr %0, i64 1168
  %12 = load double, ptr %11, align 8, !tbaa !205
  tail call void (ptr, i32, ptr, ptr, ptr, ...) @IDAProcessError(ptr noundef nonnull %0, i32 noundef -4, ptr noundef nonnull @.str, ptr noundef nonnull @.str.51, ptr noundef nonnull @.str.115, double noundef %10, double noundef %12)
  br label %28

13:                                               ; preds = %2
  %14 = getelementptr inbounds nuw i8, ptr %0, i64 1184
  %15 = load double, ptr %14, align 8, !tbaa !98
  tail call void (ptr, i32, ptr, ptr, ptr, ...) @IDAProcessError(ptr noundef nonnull %0, i32 noundef -6, ptr noundef nonnull @.str, ptr noundef nonnull @.str.51, ptr noundef nonnull @.str.116, double noundef %15)
  br label %28

16:                                               ; preds = %2
  %17 = getelementptr inbounds nuw i8, ptr %0, i64 1184
  %18 = load double, ptr %17, align 8, !tbaa !98
  tail call void (ptr, i32, ptr, ptr, ptr, ...) @IDAProcessError(ptr noundef nonnull %0, i32 noundef -7, ptr noundef nonnull @.str, ptr noundef nonnull @.str.51, ptr noundef nonnull @.str.117, double noundef %18)
  br label %28

19:                                               ; preds = %2
  %20 = getelementptr inbounds nuw i8, ptr %0, i64 1184
  %21 = load double, ptr %20, align 8, !tbaa !98
  tail call void (ptr, i32, ptr, ptr, ptr, ...) @IDAProcessError(ptr noundef nonnull %0, i32 noundef -9, ptr noundef nonnull @.str, ptr noundef nonnull @.str.51, ptr noundef nonnull @.str.118, double noundef %21)
  br label %28

22:                                               ; preds = %2
  %23 = getelementptr inbounds nuw i8, ptr %0, i64 1184
  %24 = load double, ptr %23, align 8, !tbaa !98
  tail call void (ptr, i32, ptr, ptr, ptr, ...) @IDAProcessError(ptr noundef nonnull %0, i32 noundef -8, ptr noundef nonnull @.str, ptr noundef nonnull @.str.51, ptr noundef nonnull @.str.119, double noundef %24)
  br label %28

25:                                               ; preds = %2
  %26 = getelementptr inbounds nuw i8, ptr %0, i64 1184
  %27 = load double, ptr %26, align 8, !tbaa !98
  tail call void (ptr, i32, ptr, ptr, ptr, ...) @IDAProcessError(ptr noundef nonnull %0, i32 noundef -11, ptr noundef nonnull @.str, ptr noundef nonnull @.str.51, ptr noundef nonnull @.str.120, double noundef %27)
  br label %28

28:                                               ; preds = %2, %25, %22, %19, %16, %13, %8, %3
  %.0 = phi i32 [ -11, %25 ], [ -8, %22 ], [ -9, %19 ], [ -7, %16 ], [ -6, %13 ], [ -4, %8 ], [ -3, %3 ], [ -99, %2 ]
  ret i32 %.0
}